target datalayout = "e-m:e-p270:32:32-p271:32:32-p272:64:64-i64:64-i128:128-f80:128-n8:16:32:64-S128"
target triple = "x86_64-pc-linux-gnu"

%struct.curve448_point_s = type { [1 x %struct.gf_s], [1 x %struct.gf_s], [1 x %struct.gf_s], [1 x %struct.gf_s] }
%struct.gf_s = type { [8 x i64] }

@ZERO = internal constant [1 x %struct.gf_s] zeroinitializer, align 16

; Function Attrs: inlinehint nounwind uwtable
define internal i64 @mask_to_bool(i64 noundef %0) #3 {
  %2 = alloca i64, align 8
  store i64 %0, ptr %2, align 8, !tbaa !10
  %3 = load i64, ptr %2, align 8, !tbaa !10
  ret i64 %3
}

; Function Attrs: inlinehint nounwind uwtable
define internal void @gf_mulw(ptr noundef %0, ptr noundef %1, i32 noundef %2) #3 {
  %4 = alloca ptr, align 8
  %5 = alloca ptr, align 8
  %6 = alloca i32, align 4
  store ptr %0, ptr %4, align 8, !tbaa !12
  store ptr %1, ptr %5, align 8, !tbaa !12
  store i32 %2, ptr %6, align 4, !tbaa !8
  %7 = load i32, ptr %6, align 4, !tbaa !8
  %8 = icmp sgt i32 %7, 0
  br i1 %8, label %9, label %13

9:                                                ; preds = %3
  %10 = load ptr, ptr %4, align 8, !tbaa !12
  %11 = load ptr, ptr %5, align 8, !tbaa !12
  %12 = load i32, ptr %6, align 4, !tbaa !8
  call void @ossl_gf_mulw_unsigned(ptr noundef %10, ptr noundef %11, i32 noundef %12)
  br label %20

13:                                               ; preds = %3
  %14 = load ptr, ptr %4, align 8, !tbaa !12
  %15 = load ptr, ptr %5, align 8, !tbaa !12
  %16 = load i32, ptr %6, align 4, !tbaa !8
  %17 = sub nsw i32 0, %16
  call void @ossl_gf_mulw_unsigned(ptr noundef %14, ptr noundef %15, i32 noundef %17)
  %18 = load ptr, ptr %4, align 8, !tbaa !12
  %19 = load ptr, ptr %4, align 8, !tbaa !12
  call void @gf_sub(ptr noundef %18, ptr noundef @ZERO, ptr noundef %19)
  br label %20

20:                                               ; preds = %13, %9
  ret void
}

; Function Attrs: nounwind uwtable
define i64 @ossl_curve448_point_valid(ptr noundef %0) #0 {
  %2 = alloca ptr, align 8
  %3 = alloca i64, align 8
  %4 = alloca [1 x %struct.gf_s], align 16
  %5 = alloca [1 x %struct.gf_s], align 16
  %6 = alloca [1 x %struct.gf_s], align 16
  store ptr %0, ptr %2, align 8, !tbaa !3
  call void @llvm.lifetime.start.p0(i64 8, ptr %3) #8
  call void @llvm.lifetime.start.p0(i64 64, ptr %4) #8
  call void @llvm.lifetime.start.p0(i64 64, ptr %5) #8
  call void @llvm.lifetime.start.p0(i64 64, ptr %6) #8
  %7 = getelementptr inbounds [1 x %struct.gf_s], ptr %4, i64 0, i64 0
  %8 = load ptr, ptr %2, align 8, !tbaa !3
  %9 = getelementptr inbounds nuw %struct.curve448_point_s, ptr %8, i32 0, i32 0
  %10 = getelementptr inbounds [1 x %struct.gf_s], ptr %9, i64 0, i64 0
  %11 = load ptr, ptr %2, align 8, !tbaa !3
  %12 = getelementptr inbounds nuw %struct.curve448_point_s, ptr %11, i32 0, i32 1
  %13 = getelementptr inbounds [1 x %struct.gf_s], ptr %12, i64 0, i64 0
  call void @ossl_gf_mul(ptr noundef %7, ptr noundef %10, ptr noundef %13)
  %14 = getelementptr inbounds [1 x %struct.gf_s], ptr %5, i64 0, i64 0
  %15 = load ptr, ptr %2, align 8, !tbaa !3
  %16 = getelementptr inbounds nuw %struct.curve448_point_s, ptr %15, i32 0, i32 2
  %17 = getelementptr inbounds [1 x %struct.gf_s], ptr %16, i64 0, i64 0
  %18 = load ptr, ptr %2, align 8, !tbaa !3
  %19 = getelementptr inbounds nuw %struct.curve448_point_s, ptr %18, i32 0, i32 3
  %20 = getelementptr inbounds [1 x %struct.gf_s], ptr %19, i64 0, i64 0
  call void @ossl_gf_mul(ptr noundef %14, ptr noundef %17, ptr noundef %20)
  %21 = getelementptr inbounds [1 x %struct.gf_s], ptr %4, i64 0, i64 0
  %22 = getelementptr inbounds [1 x %struct.gf_s], ptr %5, i64 0, i64 0
  %23 = call i64 @gf_eq(ptr noundef %21, ptr noundef %22)
  store i64 %23, ptr %3, align 8, !tbaa !10
  %24 = getelementptr inbounds [1 x %struct.gf_s], ptr %4, i64 0, i64 0
  %25 = load ptr, ptr %2, align 8, !tbaa !3
  %26 = getelementptr inbounds nuw %struct.curve448_point_s, ptr %25, i32 0, i32 0
  %27 = getelementptr inbounds [1 x %struct.gf_s], ptr %26, i64 0, i64 0
  call void @ossl_gf_sqr(ptr noundef %24, ptr noundef %27)
  %28 = getelementptr inbounds [1 x %struct.gf_s], ptr %5, i64 0, i64 0
  %29 = load ptr, ptr %2, align 8, !tbaa !3
  %30 = getelementptr inbounds nuw %struct.curve448_point_s, ptr %29, i32 0, i32 1
  %31 = getelementptr inbounds [1 x %struct.gf_s], ptr %30, i64 0, i64 0
  call void @ossl_gf_sqr(ptr noundef %28, ptr noundef %31)
  %32 = getelementptr inbounds [1 x %struct.gf_s], ptr %4, i64 0, i64 0
  %33 = getelementptr inbounds [1 x %struct.gf_s], ptr %5, i64 0, i64 0
  %34 = getelementptr inbounds [1 x %struct.gf_s], ptr %4, i64 0, i64 0
  call void @gf_sub(ptr noundef %32, ptr noundef %33, ptr noundef %34)
  %35 = getelementptr inbounds [1 x %struct.gf_s], ptr %5, i64 0, i64 0
  %36 = load ptr, ptr %2, align 8, !tbaa !3
  %37 = getelementptr inbounds nuw %struct.curve448_point_s, ptr %36, i32 0, i32 3
  %38 = getelementptr inbounds [1 x %struct.gf_s], ptr %37, i64 0, i64 0
  call void @ossl_gf_sqr(ptr noundef %35, ptr noundef %38)
  %39 = getelementptr inbounds [1 x %struct.gf_s], ptr %6, i64 0, i64 0
  %40 = getelementptr inbounds [1 x %struct.gf_s], ptr %5, i64 0, i64 0
  call void @gf_mulw(ptr noundef %39, ptr noundef %40, i32 noundef -39082)
  %41 = getelementptr inbounds [1 x %struct.gf_s], ptr %5, i64 0, i64 0
  %42 = load ptr, ptr %2, align 8, !tbaa !3
  %43 = getelementptr inbounds nuw %struct.curve448_point_s, ptr %42, i32 0, i32 2
  %44 = getelementptr inbounds [1 x %struct.gf_s], ptr %43, i64 0, i64 0
  call void @ossl_gf_sqr(ptr noundef %41, ptr noundef %44)
  %45 = getelementptr inbounds [1 x %struct.gf_s], ptr %5, i64 0, i64 0
  %46 = getelementptr inbounds [1 x %struct.gf_s], ptr %5, i64 0, i64 0
  %47 = getelementptr inbounds [1 x %struct.gf_s], ptr %6, i64 0, i64 0
  call void @gf_add(ptr noundef %45, ptr noundef %46, ptr noundef %47)
  %48 = getelementptr inbounds [1 x %struct.gf_s], ptr %4, i64 0, i64 0
  %49 = getelementptr inbounds [1 x %struct.gf_s], ptr %5, i64 0, i64 0
  %50 = call i64 @gf_eq(ptr noundef %48, ptr noundef %49)
  %51 = load i64, ptr %3, align 8, !tbaa !10
  %52 = and i64 %51, %50
  store i64 %52, ptr %3, align 8, !tbaa !10
  %53 = load ptr, ptr %2, align 8, !tbaa !3
  %54 = getelementptr inbounds nuw %struct.curve448_point_s, ptr %53, i32 0, i32 2
  %55 = getelementptr inbounds [1 x %struct.gf_s], ptr %54, i64 0, i64 0
  %56 = call i64 @gf_eq(ptr noundef %55, ptr noundef @ZERO)
  %57 = xor i64 %56, -1
  %58 = load i64, ptr %3, align 8, !tbaa !10
  %59 = and i64 %58, %57
  store i64 %59, ptr %3, align 8, !tbaa !10
  %60 = load i64, ptr %3, align 8, !tbaa !10
  %61 = call i64 @mask_to_bool(i64 noundef %60)
  call void @llvm.lifetime.end.p0(i64 64, ptr %6) #8
  call void @llvm.lifetime.end.p0(i64 64, ptr %5) #8
  call void @llvm.lifetime.end.p0(i64 64, ptr %4) #8
  call void @llvm.lifetime.end.p0(i64 8, ptr %3) #8
  ret i64 %61
}