; Function Attrs: nounwind uwtable
define i64 @ossl_curve448_point_valid(ptr noundef %0) local_unnamed_addr #0 {
  %2 = alloca [1 x %struct.gf_s], align 16
  %3 = alloca [1 x %struct.gf_s], align 16
  %4 = alloca [1 x %struct.gf_s], align 16
  call void @llvm.lifetime.start.p0(i64 64, ptr nonnull %2) #7
  call void @llvm.lifetime.start.p0(i64 64, ptr nonnull %3) #7
  call void @llvm.lifetime.start.p0(i64 64, ptr nonnull %4) #7
  %5 = getelementptr inbounds nuw i8, ptr %0, i64 64
  call void @ossl_gf_mul(ptr noundef nonnull %2, ptr noundef %0, ptr noundef nonnull %5) #7
  %6 = getelementptr inbounds nuw i8, ptr %0, i64 128
  %7 = getelementptr inbounds nuw i8, ptr %0, i64 192
  call void @ossl_gf_mul(ptr noundef nonnull %3, ptr noundef nonnull %6, ptr noundef nonnull %7) #7
  %8 = call i64 @gf_eq(ptr noundef nonnull %2, ptr noundef nonnull %3) #7
  call void @ossl_gf_sqr(ptr noundef nonnull %2, ptr noundef %0) #7
  call void @ossl_gf_sqr(ptr noundef nonnull %3, ptr noundef nonnull %5) #7
  call void @gf_sub(ptr noundef nonnull %2, ptr noundef nonnull %3, ptr noundef nonnull %2) #7
  call void @ossl_gf_sqr(ptr noundef nonnull %3, ptr noundef nonnull %7) #7
  call void @ossl_gf_mulw_unsigned(ptr noundef nonnull %4, ptr noundef nonnull %3, i32 noundef 39082) #7
  call void @gf_sub(ptr noundef nonnull %4, ptr noundef nonnull @ZERO, ptr noundef nonnull %4) #7
  call void @ossl_gf_sqr(ptr noundef nonnull %3, ptr noundef nonnull %6) #7
  call void @gf_add(ptr noundef nonnull %3, ptr noundef nonnull %3, ptr noundef nonnull %4) #7
  %9 = call i64 @gf_eq(ptr noundef nonnull %2, ptr noundef nonnull %3) #7
  %10 = and i64 %9, %8
  %11 = call i64 @gf_eq(ptr noundef nonnull %6, ptr noundef nonnull @ZERO) #7
  %12 = xor i64 %11, -1
  %13 = and i64 %10, %12
  call void @llvm.lifetime.end.p0(i64 64, ptr nonnull %4) #7
  call void @llvm.lifetime.end.p0(i64 64, ptr nonnull %3) #7
  call void @llvm.lifetime.end.p0(i64 64, ptr nonnull %2) #7
  ret i64 %13
}